target datalayout = "e-m:e-p270:32:32-p271:32:32-p272:64:64-i64:64-i128:128-f80:128-n8:16:32:64-S128"
target triple = "x86_64-pc-linux-gnu"

@common_log_verbosity_thold = external global i32, align 4
@.str.66 = private unnamed_addr constant [83 x i8] c"%s: llama.cpp built without libcurl, downloading from Hugging Face not supported.\0A\00", align 1
@__func__._Z25common_load_model_from_hfRKNSt7__cxx1112basic_stringIcSt11char_traitsIcESaIcEEES6_S6_S6_RK18llama_model_params = private unnamed_addr constant [26 x i8] c"common_load_model_from_hf\00", align 1

; Function Attrs: mustprogress uwtable
define noundef ptr @_Z25common_load_model_from_hfRKNSt7__cxx1112basic_stringIcSt11char_traitsIcESaIcEEES6_S6_S6_RK18llama_model_params(ptr noundef nonnull align 8 dereferenceable(32) %0, ptr noundef nonnull align 8 dereferenceable(32) %1, ptr noundef nonnull align 8 dereferenceable(32) %2, ptr noundef nonnull align 8 dereferenceable(32) %3, ptr noundef nonnull align 8 dereferenceable(64) %4) #4 {
  %6 = alloca ptr, align 8
  %7 = alloca ptr, align 8
  %8 = alloca ptr, align 8
  %9 = alloca ptr, align 8
  %10 = alloca ptr, align 8
  store ptr %0, ptr %6, align 8, !tbaa !14
  store ptr %1, ptr %7, align 8, !tbaa !14
  store ptr %2, ptr %8, align 8, !tbaa !14
  store ptr %3, ptr %9, align 8, !tbaa !14
  store ptr %4, ptr %10, align 8, !tbaa !273
  br label %11

11:                                               ; preds = %5
  %12 = load i32, ptr @common_log_verbosity_thold, align 4, !tbaa !3
  %13 = icmp sle i32 0, %12
  br i1 %13, label %14, label %16

14:                                               ; preds = %11
  %15 = call noundef ptr @_Z15common_log_mainv()
  call void (ptr, i32, ptr, ...) @_Z14common_log_addP10common_log14ggml_log_levelPKcz(ptr noundef %15, i32 noundef 3, ptr noundef @.str.66, ptr noundef @__func__._Z25common_load_model_from_hfRKNSt7__cxx1112basic_stringIcSt11char_traitsIcESaIcEEES6_S6_S6_RK18llama_model_params)
  br label %16

16:                                               ; preds = %14, %11
  br label %17

17:                                               ; preds = %16
  ret ptr null
}