; Function Attrs: mustprogress uwtable
define noalias noundef ptr @_Z25common_load_model_from_hfRKNSt7__cxx1112basic_stringIcSt11char_traitsIcESaIcEEES6_S6_S6_RK18llama_model_params(ptr noundef nonnull readnone align 8 captures(none) dereferenceable(32) %0, ptr noundef nonnull readnone align 8 captures(none) dereferenceable(32) %1, ptr noundef nonnull readnone align 8 captures(none) dereferenceable(32) %2, ptr noundef nonnull readnone align 8 captures(none) dereferenceable(32) %3, ptr noundef nonnull readnone align 8 captures(none) dereferenceable(64) %4) local_unnamed_addr #3 {
  %6 = load i32, ptr @common_log_verbosity_thold, align 4, !tbaa !72
  %7 = icmp sgt i32 %6, -1
  br i1 %7, label %8, label %10

8:                                                ; preds = %5
  %9 = tail call noundef ptr @_Z15common_log_mainv()
  tail call void (ptr, i32, ptr, ...) @_Z14common_log_addP10common_log14ggml_log_levelPKcz(ptr noundef %9, i32 noundef 3, ptr noundef nonnull @.str.66, ptr noundef nonnull @__func__._Z25common_load_model_from_hfRKNSt7__cxx1112basic_stringIcSt11char_traitsIcESaIcEEES6_S6_S6_RK18llama_model_params)
  br label %10

10:                                               ; preds = %5, %8
  ret ptr null
}